target datalayout = "e-m:e-p270:32:32-p271:32:32-p272:64:64-i64:64-i128:128-f80:128-n8:16:32:64-S128"
target triple = "x86_64-pc-linux-gnu"

%"class.vas::ot::Tracklet" = type { ptr, i32, i32, i32, i32, i32, float, float, float, i32, %"class.std::deque", %"class.std::deque", %"class.cv::Rect_", %"class.std::vector" }
%"class.std::deque" = type { %"class.std::_Deque_base" }
%"class.std::_Deque_base" = type { %"struct.std::_Deque_base<cv::Rect_<float>, std::allocator<cv::Rect_<float>>>::_Deque_impl" }
%"struct.std::_Deque_base<cv::Rect_<float>, std::allocator<cv::Rect_<float>>>::_Deque_impl" = type { %"struct.std::_Deque_base<cv::Rect_<float>, std::allocator<cv::Rect_<float>>>::_Deque_impl_data" }
%"struct.std::_Deque_base<cv::Rect_<float>, std::allocator<cv::Rect_<float>>>::_Deque_impl_data" = type { ptr, i64, %"struct.std::_Deque_iterator", %"struct.std::_Deque_iterator" }
%"struct.std::_Deque_iterator" = type { ptr, ptr, ptr, ptr }
%"class.cv::Rect_" = type { float, float, float, float }
%"class.std::vector" = type { %"struct.std::_Vector_base" }
%"struct.std::_Vector_base" = type { %"struct.std::_Vector_base<std::__cxx11::basic_string<char>, std::allocator<std::__cxx11::basic_string<char>>>::_Vector_impl" }
%"struct.std::_Vector_base<std::__cxx11::basic_string<char>, std::allocator<std::__cxx11::basic_string<char>>>::_Vector_impl" = type { %"struct.std::_Vector_base<std::__cxx11::basic_string<char>, std::allocator<std::__cxx11::basic_string<char>>>::_Vector_impl_data" }
%"struct.std::_Vector_base<std::__cxx11::basic_string<char>, std::allocator<std::__cxx11::basic_string<char>>>::_Vector_impl_data" = type { ptr, ptr, ptr }

; Function Attrs: mustprogress nounwind uwtable
define linkonce_odr hidden void @_ZNSt15__new_allocatorIN2cv5Rect_IfEEE10deallocateEPS2_m(ptr noundef nonnull align 1 dereferenceable(1) %0, ptr noundef %1, i64 noundef %2) #2 comdat align 2 {
  %4 = alloca ptr, align 8
  %5 = alloca ptr, align 8
  %6 = alloca i64, align 8
  store ptr %0, ptr %4, align 8, !tbaa !95
  store ptr %1, ptr %5, align 8, !tbaa !40
  store i64 %2, ptr %6, align 8, !tbaa !88
  %7 = load ptr, ptr %5, align 8, !tbaa !40
  call void @_ZdlPv(ptr noundef %7) #18
  ret void
}

; Function Attrs: mustprogress uwtable
define linkonce_odr hidden void @_ZNSt16allocator_traitsISaIN2cv5Rect_IfEEEE10deallocateERS3_PS2_m(ptr noundef nonnull align 1 dereferenceable(1) %0, ptr noundef %1, i64 noundef %2) #0 comdat align 2 {
  %4 = alloca ptr, align 8
  %5 = alloca ptr, align 8
  %6 = alloca i64, align 8
  store ptr %0, ptr %4, align 8, !tbaa !97
  store ptr %1, ptr %5, align 8, !tbaa !40
  store i64 %2, ptr %6, align 8, !tbaa !88
  %7 = load ptr, ptr %4, align 8, !tbaa !97
  %8 = load ptr, ptr %5, align 8, !tbaa !40
  %9 = load i64, ptr %6, align 8, !tbaa !88
  call void @_ZNSt15__new_allocatorIN2cv5Rect_IfEEE10deallocateEPS2_m(ptr noundef nonnull align 1 dereferenceable(1) %7, ptr noundef %8, i64 noundef %9)
  ret void
}

; Function Attrs: inlinehint mustprogress nounwind uwtable
define linkonce_odr noundef i64 @_ZSt16__deque_buf_sizem(i64 noundef %0) #1 comdat {
  %2 = alloca i64, align 8
  store i64 %0, ptr %2, align 8, !tbaa !88
  %3 = load i64, ptr %2, align 8, !tbaa !88
  %4 = icmp ult i64 %3, 512
  br i1 %4, label %5, label %8

5:                                                ; preds = %1
  %6 = load i64, ptr %2, align 8, !tbaa !88
  %7 = udiv i64 512, %6
  br label %9

8:                                                ; preds = %1
  br label %9

9:                                                ; preds = %8, %5
  %10 = phi i64 [ %7, %5 ], [ 1, %8 ]
  ret i64 %10
}

; Function Attrs: mustprogress nounwind uwtable
define linkonce_odr hidden void @_ZNSt11_Deque_baseIN2cv5Rect_IfEESaIS2_EE18_M_deallocate_nodeEPS2_(ptr noundef nonnull align 8 dereferenceable(80) %0, ptr noundef %1) #2 comdat align 2 personality ptr @__gxx_personality_v0 {
  %3 = alloca ptr, align 8
  %4 = alloca ptr, align 8
  store ptr %0, ptr %3, align 8, !tbaa !84
  store ptr %1, ptr %4, align 8, !tbaa !40
  %5 = load ptr, ptr %3, align 8
  %6 = getelementptr inbounds nuw %"class.std::_Deque_base", ptr %5, i32 0, i32 0
  %7 = load ptr, ptr %4, align 8, !tbaa !40
  %8 = call noundef i64 @_ZSt16__deque_buf_sizem(i64 noundef 16)
  invoke void @_ZNSt16allocator_traitsISaIN2cv5Rect_IfEEEE10deallocateERS3_PS2_m(ptr noundef nonnull align 1 dereferenceable(1) %6, ptr noundef %7, i64 noundef %8)
          to label %9 unwind label %10

9:                                                ; preds = %2
  ret void

10:                                               ; preds = %2
  %11 = landingpad { ptr, i32 }
          catch ptr null
  %12 = extractvalue { ptr, i32 } %11, 0
  call void @__clang_call_terminate(ptr %12) #17
  unreachable
}

; Function Attrs: mustprogress nounwind uwtable
define linkonce_odr hidden void @_ZNSt11_Deque_baseIN2cv5Rect_IfEESaIS2_EE16_M_destroy_nodesEPPS2_S6_(ptr noundef nonnull align 8 dereferenceable(80) %0, ptr noundef %1, ptr noundef %2) #2 comdat align 2 {
  %4 = alloca ptr, align 8
  %5 = alloca ptr, align 8
  %6 = alloca ptr, align 8
  %7 = alloca ptr, align 8
  store ptr %0, ptr %4, align 8, !tbaa !84
  store ptr %1, ptr %5, align 8, !tbaa !91
  store ptr %2, ptr %6, align 8, !tbaa !91
  %8 = load ptr, ptr %4, align 8
  call void @llvm.lifetime.start.p0(i64 8, ptr %7) #16
  %9 = load ptr, ptr %5, align 8, !tbaa !91
  store ptr %9, ptr %7, align 8, !tbaa !91
  br label %10

10:                                               ; preds = %18, %3
  %11 = load ptr, ptr %7, align 8, !tbaa !91
  %12 = load ptr, ptr %6, align 8, !tbaa !91
  %13 = icmp ult ptr %11, %12
  br i1 %13, label %15, label %14

14:                                               ; preds = %10
  call void @llvm.lifetime.end.p0(i64 8, ptr %7) #16
  br label %21

15:                                               ; preds = %10
  %16 = load ptr, ptr %7, align 8, !tbaa !91
  %17 = load ptr, ptr %16, align 8, !tbaa !40
  call void @_ZNSt11_Deque_baseIN2cv5Rect_IfEESaIS2_EE18_M_deallocate_nodeEPS2_(ptr noundef nonnull align 8 dereferenceable(80) %8, ptr noundef %17) #16
  br label %18

18:                                               ; preds = %15
  %19 = load ptr, ptr %7, align 8, !tbaa !91
  %20 = getelementptr inbounds nuw ptr, ptr %19, i32 1
  store ptr %20, ptr %7, align 8, !tbaa !91
  br label %10, !llvm.loop !116

21:                                               ; preds = %14
  ret void
}

; Function Attrs: mustprogress nounwind uwtable
define linkonce_odr hidden void @_ZNSt5dequeIN2cv5Rect_IfEESaIS2_EE15_M_destroy_dataESt15_Deque_iteratorIS2_RS2_PS2_ES8_RKS3_(ptr noundef nonnull align 8 dereferenceable(80) %0, ptr noundef %1, ptr noundef %2, ptr noundef nonnull align 1 dereferenceable(1) %3) #2 comdat align 2 {
  %5 = alloca ptr, align 8
  %6 = alloca ptr, align 8
  %7 = alloca ptr, align 8
  %8 = alloca ptr, align 8
  store ptr %0, ptr %5, align 8, !tbaa !38
  store ptr %1, ptr %6, align 8, !tbaa !101
  store ptr %2, ptr %7, align 8, !tbaa !101
  store ptr %3, ptr %8, align 8, !tbaa !97
  ret void
}

; Function Attrs: mustprogress nounwind uwtable
define linkonce_odr hidden noundef nonnull align 1 dereferenceable(1) ptr @_ZNSt11_Deque_baseIN2cv5Rect_IfEESaIS2_EE19_M_get_Tp_allocatorEv(ptr noundef nonnull align 8 dereferenceable(80) %0) #2 comdat align 2 {
  %2 = alloca ptr, align 8
  store ptr %0, ptr %2, align 8, !tbaa !84
  %3 = load ptr, ptr %2, align 8
  %4 = getelementptr inbounds nuw %"class.std::_Deque_base", ptr %3, i32 0, i32 0
  ret ptr %4
}

; Function Attrs: mustprogress nounwind uwtable
define linkonce_odr hidden void @_ZNSt5dequeIN2cv5Rect_IfEESaIS2_EE3endEv(ptr dead_on_unwind noalias writable sret(%"struct.std::_Deque_iterator") align 8 %0, ptr noundef nonnull align 8 dereferenceable(80) %1) #2 comdat align 2 {
  %3 = alloca ptr, align 8
  %4 = alloca ptr, align 8
  store ptr %0, ptr %3, align 8
  store ptr %1, ptr %4, align 8, !tbaa !38
  %5 = load ptr, ptr %4, align 8
  %6 = getelementptr inbounds nuw %"class.std::_Deque_base", ptr %5, i32 0, i32 0
  %7 = getelementptr inbounds nuw %"struct.std::_Deque_base<cv::Rect_<float>, std::allocator<cv::Rect_<float>>>::_Deque_impl_data", ptr %6, i32 0, i32 3
  call void @_ZNSt15_Deque_iteratorIN2cv5Rect_IfEERS2_PS2_EC2ERKS5_(ptr noundef nonnull align 8 dereferenceable(32) %0, ptr noundef nonnull align 8 dereferenceable(32) %7) #16
  ret void
}

; Function Attrs: mustprogress nounwind uwtable
define linkonce_odr hidden void @_ZNSt15_Deque_iteratorIN2cv5Rect_IfEERS2_PS2_EC2ERKS5_(ptr noundef nonnull align 8 dereferenceable(32) %0, ptr noundef nonnull align 8 dereferenceable(32) %1) unnamed_addr #2 comdat align 2 {
  %3 = alloca ptr, align 8
  %4 = alloca ptr, align 8
  store ptr %0, ptr %3, align 8, !tbaa !101
  store ptr %1, ptr %4, align 8, !tbaa !101
  %5 = load ptr, ptr %3, align 8
  %6 = getelementptr inbounds nuw %"struct.std::_Deque_iterator", ptr %5, i32 0, i32 0
  %7 = load ptr, ptr %4, align 8, !tbaa !101
  %8 = getelementptr inbounds nuw %"struct.std::_Deque_iterator", ptr %7, i32 0, i32 0
  %9 = load ptr, ptr %8, align 8, !tbaa !103
  store ptr %9, ptr %6, align 8, !tbaa !103
  %10 = getelementptr inbounds nuw %"struct.std::_Deque_iterator", ptr %5, i32 0, i32 1
  %11 = load ptr, ptr %4, align 8, !tbaa !101
  %12 = getelementptr inbounds nuw %"struct.std::_Deque_iterator", ptr %11, i32 0, i32 1
  %13 = load ptr, ptr %12, align 8, !tbaa !104
  store ptr %13, ptr %10, align 8, !tbaa !104
  %14 = getelementptr inbounds nuw %"struct.std::_Deque_iterator", ptr %5, i32 0, i32 2
  %15 = load ptr, ptr %4, align 8, !tbaa !101
  %16 = getelementptr inbounds nuw %"struct.std::_Deque_iterator", ptr %15, i32 0, i32 2
  %17 = load ptr, ptr %16, align 8, !tbaa !105
  store ptr %17, ptr %14, align 8, !tbaa !105
  %18 = getelementptr inbounds nuw %"struct.std::_Deque_iterator", ptr %5, i32 0, i32 3
  %19 = load ptr, ptr %4, align 8, !tbaa !101
  %20 = getelementptr inbounds nuw %"struct.std::_Deque_iterator", ptr %19, i32 0, i32 3
  %21 = load ptr, ptr %20, align 8, !tbaa !106
  store ptr %21, ptr %18, align 8, !tbaa !106
  ret void
}

; Function Attrs: noinline noreturn nounwind uwtable
define linkonce_odr hidden void @__clang_call_terminate(ptr noundef %0) #10 comdat {
  %2 = call ptr @__cxa_begin_catch(ptr %0) #16
  call void @_ZSt9terminatev() #17
  unreachable
}

; Function Attrs: mustprogress nounwind uwtable
define linkonce_odr hidden void @_ZNSt5dequeIN2cv5Rect_IfEESaIS2_EE15_M_erase_at_endESt15_Deque_iteratorIS2_RS2_PS2_E(ptr noundef nonnull align 8 dereferenceable(80) %0, ptr noundef %1) #2 comdat align 2 {
  %3 = alloca ptr, align 8
  %4 = alloca ptr, align 8
  %5 = alloca %"struct.std::_Deque_iterator", align 8
  %6 = alloca %"struct.std::_Deque_iterator", align 8
  store ptr %0, ptr %3, align 8, !tbaa !38
  store ptr %1, ptr %4, align 8, !tbaa !101
  %7 = load ptr, ptr %3, align 8
  call void @_ZNSt15_Deque_iteratorIN2cv5Rect_IfEERS2_PS2_EC2ERKS5_(ptr noundef nonnull align 8 dereferenceable(32) %5, ptr noundef nonnull align 8 dereferenceable(32) %1) #16
  call void @_ZNSt5dequeIN2cv5Rect_IfEESaIS2_EE3endEv(ptr dead_on_unwind writable sret(%"struct.std::_Deque_iterator") align 8 %6, ptr noundef nonnull align 8 dereferenceable(80) %7) #16
  %8 = call noundef nonnull align 1 dereferenceable(1) ptr @_ZNSt11_Deque_baseIN2cv5Rect_IfEESaIS2_EE19_M_get_Tp_allocatorEv(ptr noundef nonnull align 8 dereferenceable(80) %7) #16
  call void @_ZNSt5dequeIN2cv5Rect_IfEESaIS2_EE15_M_destroy_dataESt15_Deque_iteratorIS2_RS2_PS2_ES8_RKS3_(ptr noundef nonnull align 8 dereferenceable(80) %7, ptr noundef %5, ptr noundef %6, ptr noundef nonnull align 1 dereferenceable(1) %8)
  %9 = getelementptr inbounds nuw %"struct.std::_Deque_iterator", ptr %1, i32 0, i32 3
  %10 = load ptr, ptr %9, align 8, !tbaa !106
  %11 = getelementptr inbounds ptr, ptr %10, i64 1
  %12 = getelementptr inbounds nuw %"class.std::_Deque_base", ptr %7, i32 0, i32 0
  %13 = getelementptr inbounds nuw %"struct.std::_Deque_base<cv::Rect_<float>, std::allocator<cv::Rect_<float>>>::_Deque_impl_data", ptr %12, i32 0, i32 3
  %14 = getelementptr inbounds nuw %"struct.std::_Deque_iterator", ptr %13, i32 0, i32 3
  %15 = load ptr, ptr %14, align 8, !tbaa !160
  %16 = getelementptr inbounds ptr, ptr %15, i64 1
  call void @_ZNSt11_Deque_baseIN2cv5Rect_IfEESaIS2_EE16_M_destroy_nodesEPPS2_S6_(ptr noundef nonnull align 8 dereferenceable(80) %7, ptr noundef %11, ptr noundef %16) #16
  %17 = getelementptr inbounds nuw %"class.std::_Deque_base", ptr %7, i32 0, i32 0
  %18 = getelementptr inbounds nuw %"struct.std::_Deque_base<cv::Rect_<float>, std::allocator<cv::Rect_<float>>>::_Deque_impl_data", ptr %17, i32 0, i32 3
  call void @llvm.memcpy.p0.p0.i64(ptr align 8 %18, ptr align 8 %1, i64 32, i1 false), !tbaa.struct !162
  ret void
}

; Function Attrs: mustprogress nounwind uwtable
define linkonce_odr hidden void @_ZNSt5dequeIN2cv5Rect_IfEESaIS2_EE5beginEv(ptr dead_on_unwind noalias writable sret(%"struct.std::_Deque_iterator") align 8 %0, ptr noundef nonnull align 8 dereferenceable(80) %1) #2 comdat align 2 {
  %3 = alloca ptr, align 8
  %4 = alloca ptr, align 8
  store ptr %0, ptr %3, align 8
  store ptr %1, ptr %4, align 8, !tbaa !38
  %5 = load ptr, ptr %4, align 8
  %6 = getelementptr inbounds nuw %"class.std::_Deque_base", ptr %5, i32 0, i32 0
  %7 = getelementptr inbounds nuw %"struct.std::_Deque_base<cv::Rect_<float>, std::allocator<cv::Rect_<float>>>::_Deque_impl_data", ptr %6, i32 0, i32 2
  call void @_ZNSt15_Deque_iteratorIN2cv5Rect_IfEERS2_PS2_EC2ERKS5_(ptr noundef nonnull align 8 dereferenceable(32) %0, ptr noundef nonnull align 8 dereferenceable(32) %7) #16
  ret void
}

; Function Attrs: mustprogress nounwind uwtable
define linkonce_odr hidden void @_ZNSt5dequeIN2cv5Rect_IfEESaIS2_EE5clearEv(ptr noundef nonnull align 8 dereferenceable(80) %0) #2 comdat align 2 personality ptr @__gxx_personality_v0 {
  %2 = alloca ptr, align 8
  %3 = alloca %"struct.std::_Deque_iterator", align 8
  store ptr %0, ptr %2, align 8, !tbaa !38
  %4 = load ptr, ptr %2, align 8
  call void @_ZNSt5dequeIN2cv5Rect_IfEESaIS2_EE5beginEv(ptr dead_on_unwind writable sret(%"struct.std::_Deque_iterator") align 8 %3, ptr noundef nonnull align 8 dereferenceable(80) %4) #16
  invoke void @_ZNSt5dequeIN2cv5Rect_IfEESaIS2_EE15_M_erase_at_endESt15_Deque_iteratorIS2_RS2_PS2_E(ptr noundef nonnull align 8 dereferenceable(80) %4, ptr noundef %3)
          to label %5 unwind label %6

5:                                                ; preds = %1
  ret void

6:                                                ; preds = %1
  %7 = landingpad { ptr, i32 }
          catch ptr null
  %8 = extractvalue { ptr, i32 } %7, 0
  call void @__clang_call_terminate(ptr %8) #17
  unreachable
}

; Function Attrs: mustprogress nounwind uwtable
define hidden void @_ZN3vas2ot8Tracklet15ClearTrajectoryEv(ptr noundef nonnull align 8 dereferenceable(248) %0) #2 align 2 {
  %2 = alloca ptr, align 8
  store ptr %0, ptr %2, align 8, !tbaa !3
  %3 = load ptr, ptr %2, align 8
  %4 = getelementptr inbounds nuw %"class.vas::ot::Tracklet", ptr %3, i32 0, i32 10
  call void @_ZNSt5dequeIN2cv5Rect_IfEESaIS2_EE5clearEv(ptr noundef nonnull align 8 dereferenceable(80) %4) #16
  %5 = getelementptr inbounds nuw %"class.vas::ot::Tracklet", ptr %3, i32 0, i32 11
  call void @_ZNSt5dequeIN2cv5Rect_IfEESaIS2_EE5clearEv(ptr noundef nonnull align 8 dereferenceable(80) %5) #16
  ret void
}