; Function Attrs: mustprogress nounwind uwtable
define hidden void @_ZN3vas2ot8Tracklet15ClearTrajectoryEv(ptr noundef nonnull align 8 captures(none) dereferenceable(248) %0) local_unnamed_addr #1 align 2 personality ptr @__gxx_personality_v0 {
  %2 = getelementptr inbounds nuw i8, ptr %0, i64 64
  %3 = load ptr, ptr %2, align 8, !tbaa !45, !noalias !46
  %4 = getelementptr inbounds nuw i8, ptr %0, i64 72
  %5 = load ptr, ptr %4, align 8, !tbaa !49, !noalias !46
  %6 = getelementptr inbounds nuw i8, ptr %0, i64 80
  %7 = load ptr, ptr %6, align 8, !tbaa !50, !noalias !46
  %8 = getelementptr inbounds nuw i8, ptr %0, i64 88
  %9 = load ptr, ptr %8, align 8, !tbaa !51, !noalias !46
  %10 = getelementptr inbounds nuw i8, ptr %0, i64 120
  %11 = load ptr, ptr %10, align 8, !tbaa !33
  %12 = icmp ult ptr %9, %11
  br i1 %12, label %.lr.ph.i.i.i, label %_ZNSt5dequeIN2cv5Rect_IfEESaIS2_EE5clearEv.exit

.lr.ph.i.i.i:                                     ; preds = %1, %.lr.ph.i.i.i
  %.06.i.pn.i.i = phi ptr [ %.06.i.i.i, %.lr.ph.i.i.i ], [ %9, %1 ]
  %.06.i.i.i = getelementptr inbounds nuw i8, ptr %.06.i.pn.i.i, i64 8
  %13 = load ptr, ptr %.06.i.i.i, align 8, !tbaa !34
  tail call void @_ZdlPv(ptr noundef %13) #18
  %14 = icmp ult ptr %.06.i.i.i, %11
  br i1 %14, label %.lr.ph.i.i.i, label %_ZNSt5dequeIN2cv5Rect_IfEESaIS2_EE5clearEv.exit, !llvm.loop !35

_ZNSt5dequeIN2cv5Rect_IfEESaIS2_EE5clearEv.exit:  ; preds = %.lr.ph.i.i.i, %1
  %15 = getelementptr inbounds nuw i8, ptr %0, i64 96
  store ptr %3, ptr %15, align 8, !tbaa !34
  %.sroa.2.0..sroa_idx.i = getelementptr inbounds nuw i8, ptr %0, i64 104
  store ptr %5, ptr %.sroa.2.0..sroa_idx.i, align 8, !tbaa !34
  %.sroa.3.0..sroa_idx.i = getelementptr inbounds nuw i8, ptr %0, i64 112
  store ptr %7, ptr %.sroa.3.0..sroa_idx.i, align 8, !tbaa !34
  store ptr %9, ptr %10, align 8, !tbaa !52
  %16 = getelementptr inbounds nuw i8, ptr %0, i64 144
  %17 = load ptr, ptr %16, align 8, !tbaa !45, !noalias !53
  %18 = getelementptr inbounds nuw i8, ptr %0, i64 152
  %19 = load ptr, ptr %18, align 8, !tbaa !49, !noalias !53
  %20 = getelementptr inbounds nuw i8, ptr %0, i64 160
  %21 = load ptr, ptr %20, align 8, !tbaa !50, !noalias !53
  %22 = getelementptr inbounds nuw i8, ptr %0, i64 168
  %23 = load ptr, ptr %22, align 8, !tbaa !51, !noalias !53
  %24 = getelementptr inbounds nuw i8, ptr %0, i64 200
  %25 = load ptr, ptr %24, align 8, !tbaa !33
  %26 = icmp ult ptr %23, %25
  br i1 %26, label %.lr.ph.i.i.i3, label %_ZNSt5dequeIN2cv5Rect_IfEESaIS2_EE5clearEv.exit6

.lr.ph.i.i.i3:                                    ; preds = %_ZNSt5dequeIN2cv5Rect_IfEESaIS2_EE5clearEv.exit, %.lr.ph.i.i.i3
  %.06.i.pn.i.i4 = phi ptr [ %.06.i.i.i5, %.lr.ph.i.i.i3 ], [ %23, %_ZNSt5dequeIN2cv5Rect_IfEESaIS2_EE5clearEv.exit ]
  %.06.i.i.i5 = getelementptr inbounds nuw i8, ptr %.06.i.pn.i.i4, i64 8
  %27 = load ptr, ptr %.06.i.i.i5, align 8, !tbaa !34
  tail call void @_ZdlPv(ptr noundef %27) #18
  %28 = icmp ult ptr %.06.i.i.i5, %25
  br i1 %28, label %.lr.ph.i.i.i3, label %_ZNSt5dequeIN2cv5Rect_IfEESaIS2_EE5clearEv.exit6, !llvm.loop !35

_ZNSt5dequeIN2cv5Rect_IfEESaIS2_EE5clearEv.exit6: ; preds = %.lr.ph.i.i.i3, %_ZNSt5dequeIN2cv5Rect_IfEESaIS2_EE5clearEv.exit
  %29 = getelementptr inbounds nuw i8, ptr %0, i64 176
  store ptr %17, ptr %29, align 8, !tbaa !34
  %.sroa.2.0..sroa_idx.i1 = getelementptr inbounds nuw i8, ptr %0, i64 184
  store ptr %19, ptr %.sroa.2.0..sroa_idx.i1, align 8, !tbaa !34
  %.sroa.3.0..sroa_idx.i2 = getelementptr inbounds nuw i8, ptr %0, i64 192
  store ptr %21, ptr %.sroa.3.0..sroa_idx.i2, align 8, !tbaa !34
  store ptr %23, ptr %24, align 8, !tbaa !52
  ret void
}